target datalayout = "e-m:e-p270:32:32-p271:32:32-p272:64:64-i64:64-i128:128-f80:128-n8:16:32:64-S128"
target triple = "x86_64-pc-linux-gnu"

; Function Attrs: nounwind uwtable
define internal void @quantize_float(ptr noundef %0, ptr noundef %1, ptr noundef %2) #0 {
  %4 = alloca ptr, align 8
  %5 = alloca ptr, align 8
  %6 = alloca ptr, align 8
  %7 = alloca float, align 4
  %8 = alloca i32, align 4
  %9 = alloca ptr, align 8
  store ptr %0, ptr %4, align 8, !tbaa !54
  store ptr %1, ptr %5, align 8, !tbaa !55
  store ptr %2, ptr %6, align 8, !tbaa !55
  call void @llvm.lifetime.start.p0(i64 4, ptr %7) #3
  call void @llvm.lifetime.start.p0(i64 4, ptr %8) #3
  call void @llvm.lifetime.start.p0(i64 8, ptr %9) #3
  %10 = load ptr, ptr %4, align 8, !tbaa !54
  store ptr %10, ptr %9, align 8, !tbaa !54
  store i32 0, ptr %8, align 4, !tbaa !53
  br label %11

11:                                               ; preds = %35, %3
  %12 = load i32, ptr %8, align 4, !tbaa !53
  %13 = icmp slt i32 %12, 64
  br i1 %13, label %14, label %38

14:                                               ; preds = %11
  %15 = load ptr, ptr %6, align 8, !tbaa !55
  %16 = load i32, ptr %8, align 4, !tbaa !53
  %17 = sext i32 %16 to i64
  %18 = getelementptr inbounds float, ptr %15, i64 %17
  %19 = load float, ptr %18, align 4, !tbaa !66
  %20 = load ptr, ptr %5, align 8, !tbaa !55
  %21 = load i32, ptr %8, align 4, !tbaa !53
  %22 = sext i32 %21 to i64
  %23 = getelementptr inbounds float, ptr %20, i64 %22
  %24 = load float, ptr %23, align 4, !tbaa !66
  %25 = fmul float %19, %24
  store float %25, ptr %7, align 4, !tbaa !66
  %26 = load float, ptr %7, align 4, !tbaa !66
  %27 = fadd float %26, 1.638450e+04
  %28 = fptosi float %27 to i32
  %29 = sub nsw i32 %28, 16384
  %30 = trunc i32 %29 to i16
  %31 = load ptr, ptr %9, align 8, !tbaa !54
  %32 = load i32, ptr %8, align 4, !tbaa !53
  %33 = sext i32 %32 to i64
  %34 = getelementptr inbounds i16, ptr %31, i64 %33
  store i16 %30, ptr %34, align 2, !tbaa !62
  br label %35

35:                                               ; preds = %14
  %36 = load i32, ptr %8, align 4, !tbaa !53
  %37 = add nsw i32 %36, 1
  store i32 %37, ptr %8, align 4, !tbaa !53
  br label %11, !llvm.loop !79

38:                                               ; preds = %11
  call void @llvm.lifetime.end.p0(i64 8, ptr %9) #3
  call void @llvm.lifetime.end.p0(i64 4, ptr %8) #3
  call void @llvm.lifetime.end.p0(i64 4, ptr %7) #3
  ret void
}