; Function Attrs: nofree norecurse nosync nounwind memory(argmem: readwrite) uwtable
define internal void @quantize_float(ptr noundef writeonly captures(none) %0, ptr noundef readonly captures(none) %1, ptr noundef readonly captures(none) %2) #3 {
  br label %4

4:                                                ; preds = %3, %4
  %indvars.iv = phi i64 [ 0, %3 ], [ %indvars.iv.next, %4 ]
  %5 = getelementptr inbounds nuw float, ptr %2, i64 %indvars.iv
  %6 = load float, ptr %5, align 4, !tbaa !60
  %7 = getelementptr inbounds nuw float, ptr %1, i64 %indvars.iv
  %8 = load float, ptr %7, align 4, !tbaa !60
  %9 = fmul float %6, %8
  %10 = fadd float %9, 1.638450e+04
  %11 = fptosi float %10 to i32
  %12 = trunc i32 %11 to i16
  %13 = add i16 %12, -16384
  %14 = getelementptr inbounds nuw i16, ptr %0, i64 %indvars.iv
  store i16 %13, ptr %14, align 2, !tbaa !55
  %indvars.iv.next = add nuw nsw i64 %indvars.iv, 1
  %exitcond.not = icmp eq i64 %indvars.iv.next, 64
  br i1 %exitcond.not, label %15, label %4, !llvm.loop !74

15:                                               ; preds = %4
  ret void
}